; Function Attrs: mustprogress uwtable
define void @_ZN5boost10filesystem6detail12current_pathERKNS0_4pathEPNS_6system10error_codeE(ptr noundef nonnull align 8 dereferenceable(32) %0, ptr noundef %1) local_unnamed_addr #5 personality ptr @__gxx_personality_v0 {
  %3 = load ptr, ptr %0, align 8, !tbaa !13
  %4 = tail call i32 @chdir(ptr noundef %3) #27
  %5 = icmp eq i32 %4, 0
  br i1 %5, label %.thread, label %6

6:                                                ; preds = %2
  %7 = tail call ptr @__errno_location() #30
  %8 = load i32, ptr %7, align 4, !tbaa !19
  %.not.i.not = icmp eq i32 %8, 0
  br i1 %.not.i.not, label %.thread, label %10, !prof !157

.thread:                                          ; preds = %2, %6
  %.not8.i = icmp eq ptr %1, null
  br i1 %.not8.i, label %_ZN5boost10filesystem5errorEiRKNS0_4pathEPNS_6system10error_codeEPKc.exit, label %9

9:                                                ; preds = %.thread
  tail call void @llvm.memset.p0.i64(ptr noundef nonnull align 8 dereferenceable(24) %1, i8 0, i64 24, i1 false)
  br label %_ZN5boost10filesystem5errorEiRKNS0_4pathEPNS_6system10error_codeEPKc.exit

10:                                               ; preds = %6
  tail call void @_ZN5boost10filesystem10emit_errorEiRKNS0_4pathEPNS_6system10error_codeEPKc(i32 noundef %8, ptr noundef nonnull align 8 dereferenceable(32) %0, ptr noundef %1, ptr noundef nonnull @.str.11)
  br label %_ZN5boost10filesystem5errorEiRKNS0_4pathEPNS_6system10error_codeEPKc.exit

_ZN5boost10filesystem5errorEiRKNS0_4pathEPNS_6system10error_codeEPKc.exit: ; preds = %.thread, %9, %10
  ret void
}